(dp0
F0.9469655464060827
I576
sF0.5572901245409135
I69
sF0.9043691365994025
I756
sF0.20351953951482715
I429
sF0.8705321795897965
I648
sF0.024594087944372567
I247
sF0.8834590127098692
I15
sF0.4131674972232263
I335
sF0.9583058623130296
I828
sF0.40180614568127493
I723
s.