(dp0
F0.9479567038949842
I432
sF0.3449798392084097
I168
sF0.5370003033027633
I417
sF0.15829934318232952
I833
sF0.653407162593262
I533
sF0.4900006613572737
I266
sF0.8122494146592366
I273
sF0.2411229869421292
I163
sF0.6360367344429025
I353
sF0.6831094170770151
I534
s.