(dp0
F0.8914408245407957
I870
sF0.6922109885821345
I741
sF0.6507886264769861
I361
sF0.5370590905244861
I611
sF0.44295206228932227
I544
sF0.6212617694752466
I524
sF0.6073836483706252
I736
sF0.21887243401808387
I336
sF0.09050749396591173
I342
sF0.6375323229712878
I548
s.