(dp0
F0.08238229221402837
I128
sF0.01640505912880519
I290
sF0.4931795765581337
I738
sF0.9054593793387601
I291
sF0.5810072482716995
I933
sF0.8236261828010117
I702
sF0.9370950237738312
I968
sF0.843102600197112
I20
sF0.8731527913350932
I369
sF0.7716218377627728
I325
s.